; Function Attrs: mustprogress uwtable
define void @_ZN3nix8fetchers5Input7fromURLERKNSt7__cxx1112basic_stringIcSt11char_traitsIcESaIcEEEb(ptr dead_on_unwind noalias writable sret(%"struct.nix::fetchers::Input") align 8 %0, ptr noundef nonnull align 8 dereferenceable(32) %1, i1 noundef zeroext %2) local_unnamed_addr #5 align 2 personality ptr @__gxx_personality_v0 {
  %4 = alloca %"struct.nix::ParsedURL", align 8
  call void @_ZN3nix8parseURLERKNSt7__cxx1112basic_stringIcSt11char_traitsIcESaIcEEE(ptr dead_on_unwind nonnull writable sret(%"struct.nix::ParsedURL") align 8 %4, ptr noundef nonnull align 8 dereferenceable(32) %1)
  invoke void @_ZN3nix8fetchers5Input7fromURLERKNS_9ParsedURLEb(ptr dead_on_unwind writable sret(%"struct.nix::fetchers::Input") align 8 %0, ptr noundef nonnull align 8 dereferenceable(248) %4, i1 noundef zeroext %2)
          to label %5 unwind label %6

5:                                                ; preds = %3
  call void @_ZN3nix9ParsedURLD2Ev(ptr noundef nonnull align 8 dereferenceable(248) %4) #27
  ret void

6:                                                ; preds = %3
  %7 = landingpad { ptr, i32 }
          cleanup
  call void @_ZN3nix9ParsedURLD2Ev(ptr noundef nonnull align 8 dereferenceable(248) %4) #27
  resume { ptr, i32 } %7
}